target datalayout = "e-m:e-p270:32:32-p271:32:32-p272:64:64-i64:64-i128:128-f80:128-n8:16:32:64-S128"
target triple = "x86_64-pc-linux-gnu"

%struct.H5FD_log_fapl_t = type { ptr, i64, i64 }
%struct.H5FD_log_t = type { %struct.H5FD_t, i32, i64, i64, i8, [1024 x i8], i64, i64, i8, ptr, ptr, ptr, i64, i64, i64, i64, double, double, double, double, i64, ptr, %struct.H5FD_log_fapl_t }
%struct.H5FD_t = type { i64, ptr, i64, i32, i64, i64, i64, i64, i64, i8 }

@H5FD_init_g = external global i8, align 1
@H5_libterm_g = external global i8, align 1
@.str = private unnamed_addr constant [101 x i8] c"generated/home/dtcxzyw/WorkSpace/Projects/compilers/llvm-opt-benchmark/bench/hdf5/hdf5/src/H5FDlog.c\00", align 1
@H5E_VFL_g = external global i64, align 8
@.str.14 = private unnamed_addr constant [37 x i8] c"%s, errno = %d, error message = '%s'\00", align 1
@__func__.H5FD__log_lock = private unnamed_addr constant [15 x i8] c"H5FD__log_lock\00", align 1
@H5E_CANTLOCKFILE_g = external global i64, align 8
@.str.66 = private unnamed_addr constant [20 x i8] c"unable to lock file\00", align 1

; Function Attrs: nounwind uwtable
define internal i32 @H5FD__log_lock(ptr noundef %0, i1 noundef zeroext %1) #0 {
  %3 = alloca i32, align 4
  %4 = alloca ptr, align 8
  %5 = alloca i8, align 1
  %6 = alloca ptr, align 8
  %7 = alloca i32, align 4
  %8 = alloca i32, align 4
  %9 = alloca i8, align 1
  %10 = alloca i32, align 4
  %11 = alloca i32, align 4
  store ptr %0, ptr %4, align 8, !tbaa !24
  %12 = zext i1 %1 to i8
  store i8 %12, ptr %5, align 1, !tbaa !7
  call void @llvm.lifetime.start.p0(i64 8, ptr %6) #9
  %13 = load ptr, ptr %4, align 8, !tbaa !24
  store ptr %13, ptr %6, align 8, !tbaa !26
  call void @llvm.lifetime.start.p0(i64 4, ptr %7) #9
  call void @llvm.lifetime.start.p0(i64 4, ptr %8) #9
  store i32 0, ptr %8, align 4, !tbaa !3
  call void @llvm.lifetime.start.p0(i64 1, ptr %9) #9
  store i8 0, ptr %9, align 1, !tbaa !7
  %14 = load i8, ptr @H5FD_init_g, align 1, !tbaa !7, !range !9, !noundef !10
  %15 = trunc i8 %14 to i1
  br i1 %15, label %20, label %16

16:                                               ; preds = %2
  %17 = load i8, ptr @H5_libterm_g, align 1, !tbaa !7, !range !9, !noundef !10
  %18 = trunc i8 %17 to i1
  %19 = xor i1 %18, true
  br label %20

20:                                               ; preds = %16, %2
  %21 = phi i1 [ true, %2 ], [ %19, %16 ]
  %22 = xor i1 %21, true
  %23 = xor i1 %22, true
  %24 = zext i1 %23 to i32
  %25 = sext i32 %24 to i64
  %26 = call i64 @llvm.expect.i64(i64 %25, i64 1)
  %27 = icmp ne i64 %26, 0
  br i1 %27, label %28, label %80

28:                                               ; preds = %20
  %29 = load i8, ptr %5, align 1, !tbaa !7, !range !9, !noundef !10
  %30 = trunc i8 %29 to i1
  %31 = select i1 %30, i32 2, i32 1
  store i32 %31, ptr %7, align 4, !tbaa !3
  %32 = load ptr, ptr %6, align 8, !tbaa !26
  %33 = getelementptr inbounds nuw %struct.H5FD_log_t, ptr %32, i32 0, i32 1
  %34 = load i32, ptr %33, align 8, !tbaa !32
  %35 = load i32, ptr %7, align 4, !tbaa !3
  %36 = or i32 %35, 4
  %37 = call i32 @flock(i32 noundef %34, i32 noundef %36) #9
  %38 = icmp slt i32 %37, 0
  br i1 %38, label %39, label %78

39:                                               ; preds = %28
  %40 = load ptr, ptr %6, align 8, !tbaa !26
  %41 = getelementptr inbounds nuw %struct.H5FD_log_t, ptr %40, i32 0, i32 4
  %42 = load i8, ptr %41, align 8, !tbaa !57, !range !9, !noundef !10
  %43 = trunc i8 %42 to i1
  br i1 %43, label %44, label %50

44:                                               ; preds = %39
  %45 = call ptr @__errno_location() #11
  %46 = load i32, ptr %45, align 4, !tbaa !3
  %47 = icmp eq i32 38, %46
  br i1 %47, label %48, label %50

48:                                               ; preds = %44
  %49 = call ptr @__errno_location() #11
  store i32 0, ptr %49, align 4, !tbaa !3
  br label %77

50:                                               ; preds = %44, %39
  call void @llvm.lifetime.start.p0(i64 4, ptr %10) #9
  %51 = call ptr @__errno_location() #11
  %52 = load i32, ptr %51, align 4, !tbaa !3
  store i32 %52, ptr %10, align 4, !tbaa !3
  br label %53

53:                                               ; preds = %50
  br label %54

54:                                               ; preds = %53
  br label %55

55:                                               ; preds = %54
  %56 = load i64, ptr @H5E_VFL_g, align 8, !tbaa !11
  %57 = load i64, ptr @H5E_CANTLOCKFILE_g, align 8, !tbaa !11
  %58 = load i32, ptr %10, align 4, !tbaa !3
  %59 = load i32, ptr %10, align 4, !tbaa !3
  %60 = call ptr @strerror(i32 noundef %59) #9
  %61 = call i32 (ptr, ptr, i32, i64, i64, ptr, ...) @H5E_printf_stack(ptr noundef @.str, ptr noundef @__func__.H5FD__log_lock, i32 noundef 1643, i64 noundef %56, i64 noundef %57, ptr noundef @.str.14, ptr noundef @.str.66, i32 noundef %58, ptr noundef %60)
  br label %62

62:                                               ; preds = %55
  br label %63

63:                                               ; preds = %62
  store i8 1, ptr %9, align 1, !tbaa !7
  %64 = load i8, ptr %9, align 1, !tbaa !7, !range !9, !noundef !10
  %65 = trunc i8 %64 to i1
  %66 = zext i1 %65 to i8
  store i8 %66, ptr %9, align 1, !tbaa !7
  br label %67

67:                                               ; preds = %63
  br label %68

68:                                               ; preds = %67
  br label %69

69:                                               ; preds = %68
  store i32 -1, ptr %8, align 4, !tbaa !3
  store i32 10, ptr %11, align 4
  br label %74

70:                                               ; No predecessors!
  br label %71

71:                                               ; preds = %70
  br label %72

72:                                               ; preds = %71
  br label %73

73:                                               ; preds = %72
  store i32 0, ptr %11, align 4
  br label %74

74:                                               ; preds = %69, %73
  call void @llvm.lifetime.end.p0(i64 4, ptr %10) #9
  %75 = load i32, ptr %11, align 4
  switch i32 %75, label %82 [
    i32 0, label %76
    i32 10, label %79
  ]

76:                                               ; preds = %74
  br label %77

77:                                               ; preds = %76, %48
  br label %78

78:                                               ; preds = %77, %28
  br label %79

79:                                               ; preds = %78, %74
  br label %80

80:                                               ; preds = %79, %20
  %81 = load i32, ptr %8, align 4, !tbaa !3
  store i32 %81, ptr %3, align 4
  store i32 1, ptr %11, align 4
  br label %82

82:                                               ; preds = %80, %74
  call void @llvm.lifetime.end.p0(i64 1, ptr %9) #9
  call void @llvm.lifetime.end.p0(i64 4, ptr %8) #9
  call void @llvm.lifetime.end.p0(i64 4, ptr %7) #9
  call void @llvm.lifetime.end.p0(i64 8, ptr %6) #9
  %83 = load i32, ptr %3, align 4
  ret i32 %83
}