; Function Attrs: nounwind uwtable
define internal range(i32 -1, 1) i32 @H5FD__log_lock(ptr noundef readonly captures(none) %0, i1 noundef zeroext %1) #0 {
  %3 = load i8, ptr @H5FD_init_g, align 1, !tbaa !3, !range !7, !noundef !8
  %4 = trunc nuw i8 %3 to i1
  %5 = load i8, ptr @H5_libterm_g, align 1, !range !7
  %6 = trunc nuw i8 %5 to i1
  %7 = xor i1 %6, true
  %8 = select i1 %4, i1 true, i1 %7
  br i1 %8, label %9, label %29, !prof !9

9:                                                ; preds = %2
  %10 = getelementptr inbounds nuw i8, ptr %0, i64 80
  %11 = load i32, ptr %10, align 8, !tbaa !23
  %12 = select i1 %1, i32 6, i32 5
  %13 = tail call i32 @flock(i32 noundef %11, i32 noundef %12) #19
  %14 = icmp slt i32 %13, 0
  br i1 %14, label %15, label %29

15:                                               ; preds = %9
  %16 = getelementptr inbounds nuw i8, ptr %0, i64 104
  %17 = load i8, ptr %16, align 8, !tbaa !48, !range !7, !noundef !8
  %18 = trunc nuw i8 %17 to i1
  %19 = tail call ptr @__errno_location() #21
  br i1 %18, label %20, label %._crit_edge

20:                                               ; preds = %15
  %21 = load i32, ptr %19, align 4, !tbaa !21
  %22 = icmp eq i32 %21, 38
  br i1 %22, label %23, label %._crit_edge

23:                                               ; preds = %20
  store i32 0, ptr %19, align 4, !tbaa !21
  br label %29

._crit_edge:                                      ; preds = %15, %20
  %24 = load i32, ptr %19, align 4, !tbaa !21
  %25 = load i64, ptr @H5E_VFL_g, align 8, !tbaa !10
  %26 = load i64, ptr @H5E_CANTLOCKFILE_g, align 8, !tbaa !10
  %27 = tail call ptr @strerror(i32 noundef %24) #19
  %28 = tail call i32 (ptr, ptr, i32, i64, i64, ptr, ...) @H5E_printf_stack(ptr noundef nonnull @.str, ptr noundef nonnull @__func__.H5FD__log_lock, i32 noundef 1643, i64 noundef %25, i64 noundef %26, ptr noundef nonnull @.str.14, ptr noundef nonnull @.str.66, i32 noundef %24, ptr noundef %27) #19
  br label %29

29:                                               ; preds = %2, %9, %23, %._crit_edge
  %.010 = phi i32 [ 0, %23 ], [ -1, %._crit_edge ], [ 0, %9 ], [ 0, %2 ]
  ret i32 %.010
}